; ModuleID = 'source-C-CXX/22/577.cpp'
source_filename = "source-C-CXX/22/577.cpp"
target datalayout = "e-m:e-p270:32:32-p271:32:32-p272:64:64-i64:64-f80:128-n8:16:32:64-S128"
target triple = "x86_64-pc-linux-gnu"

%"class.std::ios_base::Init" = type { i8 }
%"class.std::basic_istream" = type { i32 (...)**, i64, %"class.std::basic_ios" }
%"class.std::basic_ios" = type { %"class.std::ios_base", %"class.std::basic_ostream"*, i8, i8, %"class.std::basic_streambuf"*, %"class.std::ctype"*, %"class.std::num_put"*, %"class.std::num_get"* }
%"class.std::ios_base" = type { i32 (...)**, i64, i64, i32, i32, i32, %"struct.std::ios_base::_Callback_list"*, %"struct.std::ios_base::_Words", [8 x %"struct.std::ios_base::_Words"], i32, %"struct.std::ios_base::_Words"*, %"class.std::locale" }
%"struct.std::ios_base::_Callback_list" = type { %"struct.std::ios_base::_Callback_list"*, void (i32, %"class.std::ios_base"*, i32)*, i32, i32 }
%"struct.std::ios_base::_Words" = type { i8*, i64 }
%"class.std::locale" = type { %"class.std::locale::_Impl"* }
%"class.std::locale::_Impl" = type { i32, %"class.std::locale::facet"**, i64, %"class.std::locale::facet"**, i8** }
%"class.std::locale::facet" = type <{ i32 (...)**, i32, [4 x i8] }>
%"class.std::basic_ostream" = type { i32 (...)**, %"class.std::basic_ios" }
%"class.std::basic_streambuf" = type { i32 (...)**, i8*, i8*, i8*, i8*, i8*, i8*, %"class.std::locale" }
%"class.std::ctype" = type <{ %"class.std::locale::facet.base", [4 x i8], %struct.__locale_struct*, i8, [7 x i8], i32*, i32*, i16*, i8, [256 x i8], [256 x i8], i8, [6 x i8] }>
%"class.std::locale::facet.base" = type <{ i32 (...)**, i32 }>
%struct.__locale_struct = type { [13 x %struct.__locale_data*], i16*, i32*, i32*, [13 x i8*] }
%struct.__locale_data = type opaque
%"class.std::num_put" = type { %"class.std::locale::facet.base", [4 x i8] }
%"class.std::num_get" = type { %"class.std::locale::facet.base", [4 x i8] }

@_ZStL8__ioinit = internal global %"class.std::ios_base::Init" zeroinitializer, align 1
@__dso_handle = external hidden global i8
@_ZSt3cin = external global %"class.std::basic_istream", align 8
@_ZSt4cout = external global %"class.std::basic_ostream", align 8
@llvm.global_ctors = appending global [1 x { i32, void ()*, i8* }] [{ i32, void ()*, i8* } { i32 65535, void ()* @_GLOBAL__sub_I_577.cpp, i8* null }]

declare void @_ZNSt8ios_base4InitC1Ev(%"class.std::ios_base::Init"* nonnull align 1 dereferenceable(1)) unnamed_addr #0

; Function Attrs: nounwind
declare void @_ZNSt8ios_base4InitD1Ev(%"class.std::ios_base::Init"* nonnull align 1 dereferenceable(1)) unnamed_addr #1

; Function Attrs: nofree nounwind
declare i32 @__cxa_atexit(void (i8*)*, i8*, i8*) local_unnamed_addr #2

; Function Attrs: mustprogress norecurse sspstrong uwtable
define dso_local i32 @main() local_unnamed_addr #3 {
  %1 = alloca i8, align 1
  %2 = alloca i8, align 1
  %3 = alloca i8, align 1
  %4 = alloca i8, align 1
  %5 = alloca [100 x [100 x i8]], align 16
  %6 = alloca [99 x i32], align 16
  call void @llvm.lifetime.start.p0i8(i64 1, i8* nonnull %4) #6
  %7 = getelementptr inbounds [100 x [100 x i8]], [100 x [100 x i8]]* %5, i64 0, i64 0, i64 0
  call void @llvm.lifetime.start.p0i8(i64 10000, i8* nonnull %7) #6
  %8 = bitcast [99 x i32]* %6 to i8*
  call void @llvm.lifetime.start.p0i8(i64 396, i8* nonnull %8) #6
  %9 = call nonnull align 8 dereferenceable(16) %"class.std::basic_istream"* @_ZNSi3getERc(%"class.std::basic_istream"* nonnull align 8 dereferenceable(16) @_ZSt3cin, i8* nonnull align 1 dereferenceable(1) %4)
  %10 = bitcast %"class.std::basic_istream"* %9 to i8**
  %11 = load i8*, i8** %10, align 8, !tbaa !5
  %12 = getelementptr i8, i8* %11, i64 -24
  %13 = bitcast i8* %12 to i64*
  %14 = load i64, i64* %13, align 8
  %15 = bitcast %"class.std::basic_istream"* %9 to i8*
  %16 = add nsw i64 %14, 32
  %17 = getelementptr inbounds i8, i8* %15, i64 %16
  %18 = bitcast i8* %17 to i32*
  %19 = load i32, i32* %18, align 8, !tbaa !8
  %20 = and i32 %19, 5
  %21 = icmp eq i32 %20, 0
  %22 = load i8, i8* %4, align 1
  %23 = icmp ne i8 %22, 10
  %24 = select i1 %21, i1 %23, i1 false
  br i1 %24, label %27, label %25

25:                                               ; preds = %0
  %26 = getelementptr inbounds [99 x i32], [99 x i32]* %6, i64 0, i64 1
  store i32 0, i32* %26, align 4, !tbaa !18
  br label %76

27:                                               ; preds = %0, %44
  %28 = phi i8 [ %60, %44 ], [ %22, %0 ]
  %29 = phi i32 [ %46, %44 ], [ 1, %0 ]
  %30 = phi i32 [ %45, %44 ], [ 1, %0 ]
  %31 = icmp eq i8 %28, 32
  br i1 %31, label %37, label %32

32:                                               ; preds = %27
  %33 = sext i32 %30 to i64
  %34 = sext i32 %29 to i64
  %35 = getelementptr inbounds [100 x [100 x i8]], [100 x [100 x i8]]* %5, i64 0, i64 %33, i64 %34
  store i8 %28, i8* %35, align 1, !tbaa !19
  %36 = add nsw i32 %29, 1
  br label %44

37:                                               ; preds = %27
  %38 = add nsw i32 %29, -1
  %39 = sext i32 %30 to i64
  %40 = getelementptr inbounds [99 x i32], [99 x i32]* %6, i64 0, i64 %39
  store i32 %38, i32* %40, align 4, !tbaa !18
  %41 = add nsw i32 %30, 1
  %42 = sext i32 %41 to i64
  %43 = getelementptr inbounds [100 x [100 x i8]], [100 x [100 x i8]]* %5, i64 0, i64 %42, i64 0
  store i8 32, i8* %43, align 4, !tbaa !19
  br label %44

44:                                               ; preds = %37, %32
  %45 = phi i32 [ %30, %32 ], [ %41, %37 ]
  %46 = phi i32 [ %36, %32 ], [ 1, %37 ]
  %47 = call nonnull align 8 dereferenceable(16) %"class.std::basic_istream"* @_ZNSi3getERc(%"class.std::basic_istream"* nonnull align 8 dereferenceable(16) @_ZSt3cin, i8* nonnull align 1 dereferenceable(1) %4)
  %48 = bitcast %"class.std::basic_istream"* %47 to i8**
  %49 = load i8*, i8** %48, align 8, !tbaa !5
  %50 = getelementptr i8, i8* %49, i64 -24
  %51 = bitcast i8* %50 to i64*
  %52 = load i64, i64* %51, align 8
  %53 = bitcast %"class.std::basic_istream"* %47 to i8*
  %54 = add nsw i64 %52, 32
  %55 = getelementptr inbounds i8, i8* %53, i64 %54
  %56 = bitcast i8* %55 to i32*
  %57 = load i32, i32* %56, align 8, !tbaa !8
  %58 = and i32 %57, 5
  %59 = icmp eq i32 %58, 0
  %60 = load i8, i8* %4, align 1
  %61 = icmp ne i8 %60, 10
  %62 = select i1 %59, i1 %61, i1 false
  br i1 %62, label %27, label %63, !llvm.loop !20

63:                                               ; preds = %44
  %64 = add nsw i32 %46, -1
  %65 = sext i32 %45 to i64
  %66 = getelementptr inbounds [99 x i32], [99 x i32]* %6, i64 0, i64 %65
  store i32 %64, i32* %66, align 4, !tbaa !18
  %67 = icmp sgt i32 %45, 1
  br i1 %67, label %68, label %76

68:                                               ; preds = %63, %101
  %69 = phi i32 [ %103, %101 ], [ %64, %63 ]
  %70 = phi i64 [ %99, %101 ], [ %65, %63 ]
  %71 = phi i32 [ %98, %101 ], [ 0, %63 ]
  %72 = icmp slt i32 %69, 1
  br i1 %72, label %97, label %73

73:                                               ; preds = %68
  %74 = add nuw i32 %69, 1
  %75 = zext i32 %74 to i64
  br label %83

76:                                               ; preds = %97, %25, %63
  %77 = getelementptr inbounds [99 x i32], [99 x i32]* %6, i64 0, i64 1
  %78 = load i32, i32* %77, align 4, !tbaa !18
  %79 = icmp slt i32 %78, 1
  br i1 %79, label %111, label %80

80:                                               ; preds = %76
  %81 = add nuw i32 %78, 1
  %82 = zext i32 %81 to i64
  br label %104

83:                                               ; preds = %73, %93
  %84 = phi i64 [ 1, %73 ], [ %95, %93 ]
  %85 = phi i32 [ %71, %73 ], [ %94, %93 ]
  %86 = getelementptr inbounds [100 x [100 x i8]], [100 x [100 x i8]]* %5, i64 0, i64 %70, i64 %84
  %87 = load i8, i8* %86, align 1, !tbaa !19
  call void @llvm.lifetime.start.p0i8(i64 1, i8* nonnull %3)
  store i8 %87, i8* %3, align 1, !tbaa !19
  %88 = call nonnull align 8 dereferenceable(8) %"class.std::basic_ostream"* @_ZSt16__ostream_insertIcSt11char_traitsIcEERSt13basic_ostreamIT_T0_ES6_PKS3_l(%"class.std::basic_ostream"* nonnull align 8 dereferenceable(8) @_ZSt4cout, i8* nonnull %3, i64 1)
  call void @llvm.lifetime.end.p0i8(i64 1, i8* nonnull %3)
  %89 = add nsw i32 %85, 1
  %90 = icmp eq i32 %89, %69
  br i1 %90, label %91, label %93

91:                                               ; preds = %83
  call void @llvm.lifetime.start.p0i8(i64 1, i8* nonnull %2)
  store i8 32, i8* %2, align 1, !tbaa !19
  %92 = call nonnull align 8 dereferenceable(8) %"class.std::basic_ostream"* @_ZSt16__ostream_insertIcSt11char_traitsIcEERSt13basic_ostreamIT_T0_ES6_PKS3_l(%"class.std::basic_ostream"* nonnull align 8 dereferenceable(8) @_ZSt4cout, i8* nonnull %2, i64 1)
  call void @llvm.lifetime.end.p0i8(i64 1, i8* nonnull %2)
  br label %93

93:                                               ; preds = %83, %91
  %94 = phi i32 [ 0, %91 ], [ %89, %83 ]
  %95 = add nuw nsw i64 %84, 1
  %96 = icmp eq i64 %95, %75
  br i1 %96, label %97, label %83, !llvm.loop !22

97:                                               ; preds = %93, %68
  %98 = phi i32 [ %71, %68 ], [ %94, %93 ]
  %99 = add nsw i64 %70, -1
  %100 = icmp sgt i64 %70, 2
  br i1 %100, label %101, label %76, !llvm.loop !23

101:                                              ; preds = %97
  %102 = getelementptr inbounds [99 x i32], [99 x i32]* %6, i64 0, i64 %99
  %103 = load i32, i32* %102, align 4, !tbaa !18
  br label %68

104:                                              ; preds = %80, %104
  %105 = phi i64 [ 1, %80 ], [ %109, %104 ]
  %106 = getelementptr inbounds [100 x [100 x i8]], [100 x [100 x i8]]* %5, i64 0, i64 1, i64 %105
  %107 = load i8, i8* %106, align 1, !tbaa !19
  call void @llvm.lifetime.start.p0i8(i64 1, i8* nonnull %1)
  store i8 %107, i8* %1, align 1, !tbaa !19
  %108 = call nonnull align 8 dereferenceable(8) %"class.std::basic_ostream"* @_ZSt16__ostream_insertIcSt11char_traitsIcEERSt13basic_ostreamIT_T0_ES6_PKS3_l(%"class.std::basic_ostream"* nonnull align 8 dereferenceable(8) @_ZSt4cout, i8* nonnull %1, i64 1)
  call void @llvm.lifetime.end.p0i8(i64 1, i8* nonnull %1)
  %109 = add nuw nsw i64 %105, 1
  %110 = icmp eq i64 %109, %82
  br i1 %110, label %111, label %104, !llvm.loop !24

111:                                              ; preds = %104, %76
  call void @llvm.lifetime.end.p0i8(i64 396, i8* nonnull %8) #6
  call void @llvm.lifetime.end.p0i8(i64 10000, i8* nonnull %7) #6
  call void @llvm.lifetime.end.p0i8(i64 1, i8* nonnull %4) #6
  ret i32 0
}

; Function Attrs: argmemonly mustprogress nofree nosync nounwind willreturn
declare void @llvm.lifetime.start.p0i8(i64 immarg, i8* nocapture) #4

declare nonnull align 8 dereferenceable(16) %"class.std::basic_istream"* @_ZNSi3getERc(%"class.std::basic_istream"* nonnull align 8 dereferenceable(16), i8* nonnull align 1 dereferenceable(1)) local_unnamed_addr #0

; Function Attrs: argmemonly mustprogress nofree nosync nounwind willreturn
declare void @llvm.lifetime.end.p0i8(i64 immarg, i8* nocapture) #4

declare nonnull align 8 dereferenceable(8) %"class.std::basic_ostream"* @_ZSt16__ostream_insertIcSt11char_traitsIcEERSt13basic_ostreamIT_T0_ES6_PKS3_l(%"class.std::basic_ostream"* nonnull align 8 dereferenceable(8), i8*, i64) local_unnamed_addr #0

; Function Attrs: sspstrong uwtable
define internal void @_GLOBAL__sub_I_577.cpp() #5 section ".text.startup" {
  tail call void @_ZNSt8ios_base4InitC1Ev(%"class.std::ios_base::Init"* nonnull align 1 dereferenceable(1) @_ZStL8__ioinit)
  %1 = tail call i32 @__cxa_atexit(void (i8*)* bitcast (void (%"class.std::ios_base::Init"*)* @_ZNSt8ios_base4InitD1Ev to void (i8*)*), i8* getelementptr inbounds (%"class.std::ios_base::Init", %"class.std::ios_base::Init"* @_ZStL8__ioinit, i64 0, i32 0), i8* nonnull @__dso_handle) #6
  ret void
}


!llvm.module.flags = !{!0, !1, !2, !3}
!llvm.ident = !{!4}

!0 = !{i32 1, !"wchar_size", i32 4}
!1 = !{i32 7, !"PIC Level", i32 2}
!2 = !{i32 7, !"PIE Level", i32 2}
!3 = !{i32 7, !"uwtable", i32 1}
!4 = !{!"clang version 13.0.0"}
!5 = !{!6, !6, i64 0}
!6 = !{!"vtable pointer", !7, i64 0}
!7 = !{!"Simple C++ TBAA"}
!8 = !{!9, !13, i64 32}
!9 = !{!"_ZTSSt8ios_base", !10, i64 8, !10, i64 16, !12, i64 24, !13, i64 28, !13, i64 32, !14, i64 40, !15, i64 48, !11, i64 64, !16, i64 192, !14, i64 200, !17, i64 208}
!10 = !{!"long", !11, i64 0}
!11 = !{!"omnipotent char", !7, i64 0}
!12 = !{!"_ZTSSt13_Ios_Fmtflags", !11, i64 0}
!13 = !{!"_ZTSSt12_Ios_Iostate", !11, i64 0}
!14 = !{!"any pointer", !11, i64 0}
!15 = !{!"_ZTSNSt8ios_base6_WordsE", !14, i64 0, !10, i64 8}
!16 = !{!"int", !11, i64 0}
!17 = !{!"_ZTSSt6locale", !14, i64 0}
!18 = !{!16, !16, i64 0}
!19 = !{!11, !11, i64 0}
!20 = distinct !{!20, !21}
!21 = !{!"llvm.loop.mustprogress"}
!22 = distinct !{!22, !21}
!23 = distinct !{!23, !21}
!24 = distinct !{!24, !21}
